target datalayout = "e-m:e-p270:32:32-p271:32:32-p272:64:64-i64:64-i128:128-f80:128-n8:16:32:64-S128"
target triple = "x86_64-pc-linux-gnu"

%struct._zend_executor_globals = type { %struct._zval_struct, %struct._zval_struct, [32 x ptr], ptr, ptr, %struct._zend_array, %struct._zend_array, ptr, i32, i32, ptr, ptr, ptr, ptr, ptr, ptr, i64, ptr, ptr, i32, i32, i64, i32, i32, i32, i8, i8, %struct.zend_atomic_bool_s, %struct.zend_atomic_bool_s, ptr, i64, ptr, ptr, %struct._zend_array, %struct._zend_array, i32, i8, %struct._zval_struct, %struct._zval_struct, %struct._zend_stack, %struct._zend_stack, %struct._zend_stack, ptr, i32, i32, i64, ptr, ptr, ptr, %struct._zend_objects_store, ptr, ptr, ptr, [3 x %struct._zend_op], ptr, i8, i8, i64, i32, i32, ptr, [16 x %struct._HashTableIterator], ptr, %union._zend_function, %struct._zend_op, %struct._zend_array, i64, %struct.zend_get_gc_buffer, ptr, ptr, ptr, i64, i8, i32, ptr, ptr, i64, %struct._zend_call_stack, i64, i64, [6 x ptr] }
%struct.zend_atomic_bool_s = type { i8 }
%struct._zval_struct = type { %union._zend_value, %union.anon, %union.anon.2 }
%union._zend_value = type { i64 }
%union.anon = type { i32 }
%union.anon.2 = type { i32 }
%struct._zend_stack = type { i32, i32, i32, ptr }
%struct._zend_objects_store = type { ptr, i32, i32, i32 }
%struct._HashTableIterator = type { ptr, i32, i32 }
%union._zend_function = type { %struct._zend_op_array }
%struct._zend_op_array = type { i8, [3 x i8], i32, ptr, ptr, ptr, i32, i32, ptr, ptr, ptr, ptr, i32, i32, i32, i32, ptr, ptr, ptr, ptr, ptr, i32, i32, ptr, ptr, ptr, i32, i32, i32, i32, ptr, ptr, [6 x ptr] }
%struct._zend_op = type { ptr, %union._znode_op, %union._znode_op, %union._znode_op, i32, i32, i8, i8, i8, i8 }
%union._znode_op = type { i32 }
%struct._zend_array = type { %struct._zend_refcounted_h, %union.anon.4, i32, %union.anon.6, i32, i32, i32, i32, i64, ptr }
%struct._zend_refcounted_h = type { i32, %union.anon.3 }
%union.anon.3 = type { i32 }
%union.anon.4 = type { i32 }
%union.anon.6 = type { ptr }
%struct.zend_get_gc_buffer = type { ptr, ptr, ptr }
%struct._zend_call_stack = type { ptr, i64 }
%struct._xmlDoc = type { ptr, i32, ptr, ptr, ptr, ptr, ptr, ptr, ptr, i32, i32, ptr, ptr, ptr, ptr, ptr, ptr, ptr, ptr, i32, ptr, ptr, i32, i32 }
%struct._zend_string = type { %struct._zend_refcounted_h, i64, i64, [1 x i8] }
%struct._dom_object = type { ptr, ptr, ptr, %struct._zend_object }
%struct._zend_object = type { %struct._zend_refcounted_h, i32, ptr, ptr, ptr, [1 x %struct._zval_struct] }
%struct._zend_execute_data = type { ptr, ptr, ptr, ptr, %struct._zval_struct, ptr, ptr, ptr, ptr }
%struct._zend_class_entry = type { i8, ptr, %union.anon.8, i32, i32, i32, i32, ptr, ptr, ptr, %struct._zend_array, %struct._zend_array, %struct._zend_array, ptr, ptr, ptr, ptr, ptr, ptr, ptr, ptr, ptr, ptr, ptr, ptr, ptr, ptr, ptr, ptr, ptr, ptr, ptr, %union.anon.9, ptr, ptr, ptr, ptr, i32, i32, %union.anon.10, ptr, ptr, ptr, ptr, i32, ptr, ptr, %union.anon.11 }
%union.anon.8 = type { ptr }
%union.anon.9 = type { ptr }
%union.anon.10 = type { ptr }
%union.anon.11 = type { %struct.anon.12 }
%struct.anon.12 = type { ptr, i32, i32 }
%struct._php_libxml_node_ptr = type { ptr, i32, ptr }
%struct._xmlNode = type { ptr, i32, ptr, ptr, ptr, ptr, ptr, ptr, ptr, ptr, ptr, ptr, ptr, ptr, i16, i16 }
%struct._php_libxml_ref_obj = type { ptr, ptr, %struct.php_libxml_cache_tag, i32, i8 }
%struct.php_libxml_cache_tag = type { i64 }

@executor_globals = external global %struct._zend_executor_globals, align 8
@.str.2 = private unnamed_addr constant [18 x i8] c"Couldn't fetch %s\00", align 1
@.str.28 = private unnamed_addr constant [3 x i8] c"|l\00", align 1
@.str.29 = private unnamed_addr constant [14 x i8] c"Invalid flags\00", align 1

; Function Attrs: nounwind uwtable
define internal ptr @php_dom_obj_from_obj(ptr noundef %0) #0 {
  %2 = alloca ptr, align 8
  store ptr %0, ptr %2, align 8
  %3 = load ptr, ptr %2, align 8
  %4 = getelementptr inbounds i8, ptr %3, i64 -24
  ret ptr %4
}

; Function Attrs: nounwind uwtable
define hidden void @zim_DOMDocument_xinclude(ptr noundef %0, ptr noundef %1) #0 {
  %3 = alloca ptr, align 8
  %4 = alloca ptr, align 8
  %5 = alloca ptr, align 8
  %6 = alloca ptr, align 8
  %7 = alloca ptr, align 8
  %8 = alloca ptr, align 8
  %9 = alloca i64, align 8
  %10 = alloca i32, align 4
  %11 = alloca ptr, align 8
  %12 = alloca i32, align 4
  %13 = alloca i32, align 4
  %14 = alloca i32, align 4
  %15 = alloca i32, align 4
  %16 = alloca i32, align 4
  %17 = alloca i32, align 4
  %18 = alloca ptr, align 8
  store ptr %0, ptr %4, align 8
  store ptr %1, ptr %5, align 8
  store i64 0, ptr %9, align 8
  %19 = load ptr, ptr %4, align 8
  %20 = getelementptr inbounds %struct._zend_execute_data, ptr %19, i32 0, i32 4
  store ptr %20, ptr %6, align 8
  %21 = load ptr, ptr %4, align 8
  %22 = getelementptr inbounds %struct._zend_execute_data, ptr %21, i32 0, i32 4
  %23 = getelementptr inbounds %struct._zval_struct, ptr %22, i32 0, i32 2
  %24 = load i32, ptr %23, align 4
  %25 = call i32 (i32, ptr, ...) @zend_parse_parameters(i32 noundef %24, ptr noundef @.str.28, ptr noundef %9)
  %26 = icmp eq i32 %25, -1
  br i1 %26, label %27, label %32

27:                                               ; preds = %2
  br label %28

28:                                               ; preds = %27
  %29 = load ptr, ptr getelementptr inbounds (%struct._zend_executor_globals, ptr @executor_globals, i32 0, i32 50), align 8
  %30 = icmp ne ptr %29, null
  call void @llvm.assume(i1 %30)
  br label %178

31:                                               ; No predecessors!
  br label %32

32:                                               ; preds = %31, %2
  %33 = load i64, ptr %9, align 8
  %34 = icmp sgt i64 %33, 2147483647
  %35 = xor i1 %34, true
  %36 = xor i1 %35, true
  %37 = zext i1 %36 to i32
  %38 = sext i32 %37 to i64
  %39 = icmp ne i64 %38, 0
  br i1 %39, label %48, label %40

40:                                               ; preds = %32
  %41 = load i64, ptr %9, align 8
  %42 = icmp slt i64 %41, -2147483648
  %43 = xor i1 %42, true
  %44 = xor i1 %43, true
  %45 = zext i1 %44 to i32
  %46 = sext i32 %45 to i64
  %47 = icmp ne i64 %46, 0
  br label %48

48:                                               ; preds = %40, %32
  %49 = phi i1 [ true, %32 ], [ %47, %40 ]
  %50 = xor i1 %49, true
  %51 = xor i1 %50, true
  %52 = zext i1 %51 to i32
  %53 = sext i32 %52 to i64
  %54 = icmp ne i64 %53, 0
  br i1 %54, label %55, label %62

55:                                               ; preds = %48
  call void (ptr, i32, ptr, ...) @php_error_docref(ptr noundef null, i32 noundef 2, ptr noundef @.str.29)
  br label %56

56:                                               ; preds = %55
  br label %57

57:                                               ; preds = %56
  %58 = load ptr, ptr %5, align 8
  %59 = getelementptr inbounds %struct._zval_struct, ptr %58, i32 0, i32 1
  store i32 2, ptr %59, align 8
  br label %60

60:                                               ; preds = %57
  br label %178

61:                                               ; No predecessors!
  br label %62

62:                                               ; preds = %61, %48
  %63 = load ptr, ptr %6, align 8
  %64 = getelementptr inbounds %struct._zval_struct, ptr %63, i32 0, i32 0
  %65 = load ptr, ptr %64, align 8
  %66 = call ptr @php_dom_obj_from_obj(ptr noundef %65)
  store ptr %66, ptr %11, align 8
  %67 = load ptr, ptr %11, align 8
  %68 = getelementptr inbounds %struct._dom_object, ptr %67, i32 0, i32 0
  %69 = load ptr, ptr %68, align 8
  %70 = icmp eq ptr %69, null
  %71 = xor i1 %70, true
  %72 = xor i1 %71, true
  %73 = zext i1 %72 to i32
  %74 = sext i32 %73 to i64
  %75 = icmp ne i64 %74, 0
  br i1 %75, label %76, label %89

76:                                               ; preds = %62
  %77 = load ptr, ptr %11, align 8
  %78 = getelementptr inbounds %struct._dom_object, ptr %77, i32 0, i32 3
  %79 = getelementptr inbounds %struct._zend_object, ptr %78, i32 0, i32 2
  %80 = load ptr, ptr %79, align 8
  %81 = getelementptr inbounds %struct._zend_class_entry, ptr %80, i32 0, i32 1
  %82 = load ptr, ptr %81, align 8
  %83 = getelementptr inbounds %struct._zend_string, ptr %82, i32 0, i32 3
  %84 = getelementptr inbounds [1 x i8], ptr %83, i64 0, i64 0
  call void (ptr, ptr, ...) @zend_throw_error(ptr noundef null, ptr noundef @.str.2, ptr noundef %84)
  br label %85

85:                                               ; preds = %76
  %86 = load ptr, ptr getelementptr inbounds (%struct._zend_executor_globals, ptr @executor_globals, i32 0, i32 50), align 8
  %87 = icmp ne ptr %86, null
  call void @llvm.assume(i1 %87)
  br label %178

88:                                               ; No predecessors!
  br label %89

89:                                               ; preds = %88, %62
  %90 = load ptr, ptr %11, align 8
  %91 = getelementptr inbounds %struct._dom_object, ptr %90, i32 0, i32 0
  %92 = load ptr, ptr %91, align 8
  %93 = getelementptr inbounds %struct._php_libxml_node_ptr, ptr %92, i32 0, i32 0
  %94 = load ptr, ptr %93, align 8
  store ptr %94, ptr %7, align 8
  %95 = call ptr @__xmlLoadExtDtdDefaultValue()
  %96 = load i32, ptr %95, align 4
  store i32 %96, ptr %12, align 4
  %97 = call ptr @__xmlLoadExtDtdDefaultValue()
  store i32 0, ptr %97, align 4
  %98 = call ptr @__xmlDoValidityCheckingDefaultValue()
  %99 = load i32, ptr %98, align 4
  store i32 %99, ptr %13, align 4
  %100 = call ptr @__xmlDoValidityCheckingDefaultValue()
  store i32 0, ptr %100, align 4
  %101 = call i32 @xmlPedanticParserDefault(i32 noundef 0)
  store i32 %101, ptr %14, align 4
  %102 = call i32 @xmlSubstituteEntitiesDefault(i32 noundef 0)
  store i32 %102, ptr %15, align 4
  %103 = call i32 @xmlLineNumbersDefault(i32 noundef 0)
  store i32 %103, ptr %16, align 4
  %104 = call i32 @xmlKeepBlanksDefault(i32 noundef 1)
  store i32 %104, ptr %17, align 4
  %105 = load ptr, ptr %7, align 8
  %106 = load i64, ptr %9, align 8
  %107 = trunc i64 %106 to i32
  %108 = call i32 @xmlXIncludeProcessFlags(ptr noundef %105, i32 noundef %107)
  store i32 %108, ptr %10, align 4
  %109 = load i32, ptr %12, align 4
  %110 = call ptr @__xmlLoadExtDtdDefaultValue()
  store i32 %109, ptr %110, align 4
  %111 = load i32, ptr %13, align 4
  %112 = call ptr @__xmlDoValidityCheckingDefaultValue()
  store i32 %111, ptr %112, align 4
  %113 = load i32, ptr %14, align 4
  %114 = call i32 @xmlPedanticParserDefault(i32 noundef %113)
  %115 = load i32, ptr %15, align 4
  %116 = call i32 @xmlSubstituteEntitiesDefault(i32 noundef %115)
  %117 = load i32, ptr %16, align 4
  %118 = call i32 @xmlLineNumbersDefault(i32 noundef %117)
  %119 = load i32, ptr %17, align 4
  %120 = call i32 @xmlKeepBlanksDefault(i32 noundef %119)
  %121 = load ptr, ptr %7, align 8
  %122 = getelementptr inbounds %struct._xmlDoc, ptr %121, i32 0, i32 3
  %123 = load ptr, ptr %122, align 8
  store ptr %123, ptr %8, align 8
  br label %124

124:                                              ; preds = %139, %89
  %125 = load ptr, ptr %8, align 8
  %126 = icmp ne ptr %125, null
  br i1 %126, label %127, label %137

127:                                              ; preds = %124
  %128 = load ptr, ptr %8, align 8
  %129 = getelementptr inbounds %struct._xmlNode, ptr %128, i32 0, i32 1
  %130 = load i32, ptr %129, align 8
  %131 = icmp ne i32 %130, 1
  br i1 %131, label %132, label %137

132:                                              ; preds = %127
  %133 = load ptr, ptr %8, align 8
  %134 = getelementptr inbounds %struct._xmlNode, ptr %133, i32 0, i32 1
  %135 = load i32, ptr %134, align 8
  %136 = icmp ne i32 %135, 19
  br label %137

137:                                              ; preds = %132, %127, %124
  %138 = phi i1 [ false, %127 ], [ false, %124 ], [ %136, %132 ]
  br i1 %138, label %139, label %143

139:                                              ; preds = %137
  %140 = load ptr, ptr %8, align 8
  %141 = getelementptr inbounds %struct._xmlNode, ptr %140, i32 0, i32 6
  %142 = load ptr, ptr %141, align 8
  store ptr %142, ptr %8, align 8
  br label %124

143:                                              ; preds = %137
  %144 = load ptr, ptr %8, align 8
  %145 = icmp ne ptr %144, null
  br i1 %145, label %146, label %148

146:                                              ; preds = %143
  %147 = load ptr, ptr %8, align 8
  call void @php_dom_remove_xinclude_nodes(ptr noundef %147)
  br label %148

148:                                              ; preds = %146, %143
  %149 = load ptr, ptr %11, align 8
  %150 = getelementptr inbounds %struct._dom_object, ptr %149, i32 0, i32 1
  %151 = load ptr, ptr %150, align 8
  store ptr %151, ptr %3, align 8
  %152 = load ptr, ptr %3, align 8
  %153 = icmp ne ptr %152, null
  br i1 %153, label %155, label %154

154:                                              ; preds = %148
  br label %160

155:                                              ; preds = %148
  %156 = load ptr, ptr %3, align 8
  %157 = getelementptr inbounds %struct._php_libxml_ref_obj, ptr %156, i32 0, i32 2
  %158 = load i64, ptr %157, align 8
  %159 = add i64 %158, 1
  store i64 %159, ptr %157, align 8
  br label %160

160:                                              ; preds = %155, %154
  %161 = load i32, ptr %10, align 4
  %162 = icmp ne i32 %161, 0
  br i1 %162, label %163, label %173

163:                                              ; preds = %160
  br label %164

164:                                              ; preds = %163
  %165 = load ptr, ptr %5, align 8
  store ptr %165, ptr %18, align 8
  %166 = load i32, ptr %10, align 4
  %167 = sext i32 %166 to i64
  %168 = load ptr, ptr %18, align 8
  %169 = getelementptr inbounds %struct._zval_struct, ptr %168, i32 0, i32 0
  store i64 %167, ptr %169, align 8
  %170 = load ptr, ptr %18, align 8
  %171 = getelementptr inbounds %struct._zval_struct, ptr %170, i32 0, i32 1
  store i32 4, ptr %171, align 8
  br label %172

172:                                              ; preds = %164
  br label %178

173:                                              ; preds = %160
  br label %174

174:                                              ; preds = %173
  %175 = load ptr, ptr %5, align 8
  %176 = getelementptr inbounds %struct._zval_struct, ptr %175, i32 0, i32 1
  store i32 2, ptr %176, align 8
  br label %177

177:                                              ; preds = %174
  br label %178

178:                                              ; preds = %177, %172, %85, %60, %28
  ret void
}