; Function Attrs: nounwind uwtable
define hidden void @zim_DOMDocument_xinclude(ptr nocapture noundef readonly %0, ptr nocapture noundef writeonly %1) local_unnamed_addr #0 {
  %3 = alloca i64, align 8
  store i64 0, ptr %3, align 8
  %4 = getelementptr inbounds i8, ptr %0, i64 32
  %5 = getelementptr inbounds i8, ptr %0, i64 44
  %6 = load i32, ptr %5, align 4
  %7 = call i32 (i32, ptr, ...) @zend_parse_parameters(i32 noundef %6, ptr noundef nonnull @.str.28, ptr noundef nonnull %3) #10
  %8 = icmp eq i32 %7, -1
  br i1 %8, label %9, label %12

9:                                                ; preds = %2
  %10 = load ptr, ptr getelementptr inbounds (%struct._zend_executor_globals, ptr @executor_globals, i64 0, i32 50), align 8
  %11 = icmp ne ptr %10, null
  call void @llvm.assume(i1 %11)
  br label %68

12:                                               ; preds = %2
  %13 = load i64, ptr %3, align 8
  %14 = add i64 %13, -2147483648
  %spec.select = icmp ult i64 %14, -4294967296
  br i1 %spec.select, label %15, label %17

15:                                               ; preds = %12
  call void (ptr, i32, ptr, ...) @php_error_docref(ptr noundef null, i32 noundef 2, ptr noundef nonnull @.str.29) #10
  %16 = getelementptr inbounds i8, ptr %1, i64 8
  store i32 2, ptr %16, align 8
  br label %68

17:                                               ; preds = %12
  %18 = load ptr, ptr %4, align 8
  %19 = getelementptr inbounds i8, ptr %18, i64 -24
  %20 = load ptr, ptr %19, align 8
  %21 = icmp eq ptr %20, null
  br i1 %21, label %22, label %30

22:                                               ; preds = %17
  %23 = getelementptr inbounds i8, ptr %18, i64 16
  %24 = load ptr, ptr %23, align 8
  %25 = getelementptr inbounds i8, ptr %24, i64 8
  %26 = load ptr, ptr %25, align 8
  %27 = getelementptr inbounds i8, ptr %26, i64 24
  call void (ptr, ptr, ...) @zend_throw_error(ptr noundef null, ptr noundef nonnull @.str.2, ptr noundef nonnull %27) #10
  %28 = load ptr, ptr getelementptr inbounds (%struct._zend_executor_globals, ptr @executor_globals, i64 0, i32 50), align 8
  %29 = icmp ne ptr %28, null
  call void @llvm.assume(i1 %29)
  br label %68

30:                                               ; preds = %17
  %31 = load ptr, ptr %20, align 8
  %32 = call ptr @__xmlLoadExtDtdDefaultValue() #10
  %33 = load i32, ptr %32, align 4
  %34 = call ptr @__xmlLoadExtDtdDefaultValue() #10
  store i32 0, ptr %34, align 4
  %35 = call ptr @__xmlDoValidityCheckingDefaultValue() #10
  %36 = load i32, ptr %35, align 4
  %37 = call ptr @__xmlDoValidityCheckingDefaultValue() #10
  store i32 0, ptr %37, align 4
  %38 = call i32 @xmlPedanticParserDefault(i32 noundef 0) #10
  %39 = call i32 @xmlSubstituteEntitiesDefault(i32 noundef 0) #10
  %40 = call i32 @xmlLineNumbersDefault(i32 noundef 0) #10
  %41 = call i32 @xmlKeepBlanksDefault(i32 noundef 1) #10
  %42 = load i64, ptr %3, align 8
  %43 = trunc i64 %42 to i32
  %44 = call i32 @xmlXIncludeProcessFlags(ptr noundef %31, i32 noundef %43) #10
  %45 = call ptr @__xmlLoadExtDtdDefaultValue() #10
  store i32 %33, ptr %45, align 4
  %46 = call ptr @__xmlDoValidityCheckingDefaultValue() #10
  store i32 %36, ptr %46, align 4
  %47 = call i32 @xmlPedanticParserDefault(i32 noundef %38) #10
  %48 = call i32 @xmlSubstituteEntitiesDefault(i32 noundef %39) #10
  %49 = call i32 @xmlLineNumbersDefault(i32 noundef %40) #10
  %50 = call i32 @xmlKeepBlanksDefault(i32 noundef %41) #10
  %51 = getelementptr inbounds i8, ptr %31, i64 24
  %.040 = load ptr, ptr %51, align 8
  %.not41 = icmp eq ptr %.040, null
  br i1 %.not41, label %.critedge38, label %.lr.ph

.lr.ph:                                           ; preds = %30, %54
  %.042 = phi ptr [ %.0, %54 ], [ %.040, %30 ]
  %52 = getelementptr inbounds i8, ptr %.042, i64 8
  %53 = load i32, ptr %52, align 8
  switch i32 %53, label %54 [
    i32 1, label %.critedge
    i32 19, label %.critedge
  ]

54:                                               ; preds = %.lr.ph
  %55 = getelementptr inbounds i8, ptr %.042, i64 48
  %.0 = load ptr, ptr %55, align 8
  %.not = icmp eq ptr %.0, null
  br i1 %.not, label %.critedge38, label %.lr.ph

.critedge:                                        ; preds = %.lr.ph, %.lr.ph
  call fastcc void @php_dom_remove_xinclude_nodes(ptr noundef nonnull %.042)
  br label %.critedge38

.critedge38:                                      ; preds = %54, %30, %.critedge
  %56 = getelementptr inbounds i8, ptr %18, i64 -16
  %57 = load ptr, ptr %56, align 8
  %.not36 = icmp eq ptr %57, null
  br i1 %.not36, label %62, label %58

58:                                               ; preds = %.critedge38
  %59 = getelementptr inbounds i8, ptr %57, i64 16
  %60 = load i64, ptr %59, align 8
  %61 = add i64 %60, 1
  store i64 %61, ptr %59, align 8
  br label %62

62:                                               ; preds = %.critedge38, %58
  %.not37 = icmp eq i32 %44, 0
  br i1 %.not37, label %66, label %63

63:                                               ; preds = %62
  %64 = sext i32 %44 to i64
  store i64 %64, ptr %1, align 8
  %65 = getelementptr inbounds i8, ptr %1, i64 8
  store i32 4, ptr %65, align 8
  br label %68

66:                                               ; preds = %62
  %67 = getelementptr inbounds i8, ptr %1, i64 8
  store i32 2, ptr %67, align 8
  br label %68

68:                                               ; preds = %66, %63, %22, %15, %9
  ret void
}